target datalayout = "e-m:e-p270:32:32-p271:32:32-p272:64:64-i64:64-i128:128-f80:128-n8:16:32:64-S128"
target triple = "x86_64-pc-linux-gnu"

%struct.redisServer = type { i32, i64, ptr, ptr, ptr, i32, i32, i32, i32, i32, ptr, ptr, ptr, ptr, ptr, i32, i32, i32, i32, i64, i32, i32, i32, i32, ptr, i32, i32, [41 x i8], i32, i64, i32, i32, i32, ptr, ptr, i32, i32, i64, ptr, ptr, ptr, ptr, [2 x i32], i32, i32, i32, i32, i32, i32, [16 x ptr], i32, ptr, ptr, i32, [8 x %struct.connListener], i32, %struct.connListener, ptr, ptr, ptr, ptr, ptr, ptr, ptr, ptr, ptr, ptr, i32, ptr, i32, ptr, [3 x %struct.pause_event], [256 x i8], ptr, i64, i32, i32, [128 x i32], i32, i32, i64, i32, i32, i32, i32, i32, i64, i64, i64, i64, i64, i64, i64, i64, i64, i64, double, i64, i64, i64, i64, i64, i64, i64, i64, i64, i64, i64, i64, i64, i64, i64, i64, i64, i64, i64, i64, i64, double, i64, i64, i64, i64, i64, ptr, i64, i64, i64, %struct.malloc_stats, i64, i64, i64, i64, i64, i64, i64, i64, i64, i64, i64, i64, double, [4 x i64], i64, i64, i64, i64, [128 x i64], [128 x i64], i64, i64, [7 x %struct.anon], i64, i64, i64, i64, i64, i64, [4 x %struct.durationStats], i32, i32, i32, i32, i32, i32, i32, i32, i32, i32, i32, i32, i64, i32, i32, i32, i32, i64, i64, i32, i32, i32, i32, i32, ptr, [3 x %struct.clientBufferLimitsConfig], i32, i32, i32, ptr, i32, i32, i32, i32, i32, i32, ptr, ptr, i32, i32, i64, i64, i64, i64, i64, i32, i32, ptr, i32, i32, i64, i64, i64, i64, i64, i32, i32, i64, i32, i32, i32, i32, i32, i32, i32, i32, ptr, i32, i64, i64, i64, i64, i32, ptr, i32, ptr, i32, i32, i32, i64, i64, i64, i64, i32, i32, i32, i32, i32, i32, ptr, i32, i32, ptr, i32, i32, i32, [2 x i32], i32, %struct.redisOpArray, i32, ptr, i32, ptr, i32, i32, i32, i32, i32, i32, i32, [41 x i8], [41 x i8], i64, i64, i64, i64, i32, i32, ptr, i64, i64, %struct.replDataBuf, i64, i64, i32, i32, i32, i32, i32, i32, i32, i32, i32, i64, ptr, i64, ptr, ptr, ptr, i32, i32, ptr, ptr, i32, i32, i32, i64, i64, i64, i64, ptr, ptr, i32, ptr, i64, i32, i32, i32, i64, i32, i32, i32, i32, ptr, i32, i32, [41 x i8], i64, i32, ptr, i32, i32, i64, i64, i32, i32, i32, i32, i32, i64, [3 x i32], i32, i32, i32, [10 x i32], ptr, ptr, i32, i64, ptr, ptr, i32, i32, i32, i32, i64, i64, i64, i64, i64, i64, i64, i64, i64, i64, i32, i32, i64, i64, i32, i64, i64, i64, i64, i64, ptr, ptr, i32, ptr, i32, i32, i32, i32, i64, i64, ptr, ptr, i32, i32, i32, i32, i32, ptr, ptr, ptr, i32, i32, i32, i32, i32, i32, i32, i64, i32, i32, i64, i32, i32, i32, i32, i32, i32, i32, i64, ptr, ptr, i64, ptr, i32, %struct.aclInfo, i32, i64, i32, i32, i32, %struct.redisTLSContextConfig, ptr, ptr, ptr, ptr, ptr, i64, i32, ptr, i32, i32, i32, i64, i32, ptr }
%struct.connListener = type { [16 x i32], i32, ptr, i32, i32, ptr, ptr }
%struct.pause_event = type { i32, i64 }
%struct.malloc_stats = type { i64, i64, i64, i64, i64, i64, i64, i64, i64, i64, i64 }
%struct.anon = type { i64, i64, [16 x i64], i32 }
%struct.durationStats = type { i64, i64, i64 }
%struct.clientBufferLimitsConfig = type { i64, i64, i64 }
%struct.redisOpArray = type { ptr, i32, i32 }
%struct.replDataBuf = type { ptr, i64, i64, i64, i64 }
%struct.aclInfo = type { i64, i64, i64, i64 }
%struct.redisTLSContextConfig = type { ptr, ptr, ptr, ptr, ptr, ptr, ptr, ptr, ptr, ptr, ptr, ptr, i32, i32, i32, i32 }

@server = external global %struct.redisServer, align 8

; Function Attrs: nounwind uwtable
define dso_local void @pauseActions(i32 noundef %0, i64 noundef %1, i32 noundef %2) #0 {
  %4 = alloca i32, align 4
  %5 = alloca i64, align 8
  %6 = alloca i32, align 4
  store i32 %0, ptr %4, align 4, !tbaa !19
  store i64 %1, ptr %5, align 8, !tbaa !155
  store i32 %2, ptr %6, align 4, !tbaa !19
  %7 = load i32, ptr %6, align 4, !tbaa !19
  %8 = load i32, ptr %4, align 4, !tbaa !19
  %9 = zext i32 %8 to i64
  %10 = getelementptr inbounds nuw [3 x %struct.pause_event], ptr getelementptr inbounds nuw (%struct.redisServer, ptr @server, i32 0, i32 71), i64 0, i64 %9
  %11 = getelementptr inbounds nuw %struct.pause_event, ptr %10, i32 0, i32 0
  store i32 %7, ptr %11, align 8, !tbaa !295
  %12 = load i32, ptr %4, align 4, !tbaa !19
  %13 = zext i32 %12 to i64
  %14 = getelementptr inbounds nuw [3 x %struct.pause_event], ptr getelementptr inbounds nuw (%struct.redisServer, ptr @server, i32 0, i32 71), i64 0, i64 %13
  %15 = getelementptr inbounds nuw %struct.pause_event, ptr %14, i32 0, i32 1
  %16 = load i64, ptr %15, align 8, !tbaa !293
  %17 = load i64, ptr %5, align 8, !tbaa !155
  %18 = icmp slt i64 %16, %17
  br i1 %18, label %19, label %25

19:                                               ; preds = %3
  %20 = load i64, ptr %5, align 8, !tbaa !155
  %21 = load i32, ptr %4, align 4, !tbaa !19
  %22 = zext i32 %21 to i64
  %23 = getelementptr inbounds nuw [3 x %struct.pause_event], ptr getelementptr inbounds nuw (%struct.redisServer, ptr @server, i32 0, i32 71), i64 0, i64 %22
  %24 = getelementptr inbounds nuw %struct.pause_event, ptr %23, i32 0, i32 1
  store i64 %20, ptr %24, align 8, !tbaa !293
  br label %25

25:                                               ; preds = %19, %3
  call void @updatePausedActions()
  %26 = load i32, ptr getelementptr inbounds nuw (%struct.redisServer, ptr @server, i32 0, i32 31), align 4, !tbaa !317
  %27 = icmp ne i32 %26, 0
  br i1 %27, label %28, label %29

28:                                               ; preds = %25
  store i32 1, ptr getelementptr inbounds nuw (%struct.redisServer, ptr @server, i32 0, i32 35), align 8, !tbaa !318
  br label %29

29:                                               ; preds = %28, %25
  ret void
}

; Function Attrs: nounwind uwtable
define internal void @pauseClientsByClient(i64 noundef %0, i32 noundef %1) #0 {
  %3 = alloca i64, align 8
  %4 = alloca i32, align 4
  %5 = alloca i32, align 4
  %6 = alloca ptr, align 8
  store i64 %0, ptr %3, align 8, !tbaa !155
  store i32 %1, ptr %4, align 4, !tbaa !19
  call void @llvm.lifetime.start.p0(i64 4, ptr %5) #16
  call void @llvm.lifetime.start.p0(i64 8, ptr %6) #16
  store ptr getelementptr inbounds nuw (%struct.redisServer, ptr @server, i32 0, i32 71), ptr %6, align 8, !tbaa !10
  %7 = load i32, ptr %4, align 4, !tbaa !19
  %8 = icmp ne i32 %7, 0
  br i1 %8, label %9, label %10

9:                                                ; preds = %2
  store i32 30, ptr %5, align 4, !tbaa !19
  br label %18

10:                                               ; preds = %2
  store i32 29, ptr %5, align 4, !tbaa !19
  %11 = load ptr, ptr %6, align 8, !tbaa !10
  %12 = getelementptr inbounds nuw %struct.pause_event, ptr %11, i32 0, i32 0
  %13 = load i32, ptr %12, align 8, !tbaa !295
  %14 = and i32 %13, 2
  %15 = icmp ne i32 %14, 0
  br i1 %15, label %16, label %17

16:                                               ; preds = %10
  store i32 30, ptr %5, align 4, !tbaa !19
  br label %17

17:                                               ; preds = %16, %10
  br label %18

18:                                               ; preds = %17, %9
  %19 = load i64, ptr %3, align 8, !tbaa !155
  %20 = load i32, ptr %5, align 4, !tbaa !19
  call void @pauseActions(i32 noundef 0, i64 noundef %19, i32 noundef %20)
  call void @llvm.lifetime.end.p0(i64 8, ptr %6) #16
  call void @llvm.lifetime.end.p0(i64 4, ptr %5) #16
  ret void
}