; Function Attrs: nounwind uwtable
define internal fastcc void @pauseClientsByClient(i64 noundef %0, i32 noundef range(i32 0, 2) %1) unnamed_addr #0 {
  %.not = icmp eq i32 %1, 0
  %3 = load i32, ptr getelementptr inbounds nuw (i8, ptr @server, i64 1544), align 8
  %4 = and i32 %3, 2
  %.not3 = icmp eq i32 %4, 0
  %5 = select i1 %.not, i1 %.not3, i1 false
  %.0 = select i1 %5, i32 29, i32 30
  store i32 %.0, ptr getelementptr inbounds nuw (i8, ptr @server, i64 1544), align 8, !tbaa !246
  %6 = load i64, ptr getelementptr inbounds nuw (i8, ptr @server, i64 1552), align 8, !tbaa !244
  %7 = icmp slt i64 %6, %0
  br i1 %7, label %8, label %9

8:                                                ; preds = %2
  store i64 %0, ptr getelementptr inbounds nuw (i8, ptr @server, i64 1552), align 8, !tbaa !244
  br label %9

9:                                                ; preds = %8, %2
  tail call void @updatePausedActions()
  %10 = load i32, ptr getelementptr inbounds nuw (i8, ptr @server, i64 220), align 4, !tbaa !254
  %.not.i = icmp eq i32 %10, 0
  br i1 %.not.i, label %pauseActions.exit, label %11

11:                                               ; preds = %9
  store i32 1, ptr getelementptr inbounds nuw (i8, ptr @server, i64 248), align 8, !tbaa !255
  br label %pauseActions.exit

pauseActions.exit:                                ; preds = %9, %11
  ret void
}